; Function Attrs: mustprogress uwtable
define internal fastcc void @"_ZNO8pybind116detail15argument_loaderIJEE4callINS_9bytearrayENS0_9void_typeERZ22test_submodule_pytypesRNS_7module_EE4$_56EENSt9enable_ifIXntsr3std7is_voidIT_EE5valueESB_E4typeEOT1_"(ptr dead_on_unwind noalias writable align 8 %0) unnamed_addr #1 align 2 personality ptr @__gxx_personality_v0 {
  %2 = alloca %struct._Guard, align 8
  %3 = alloca %"class.std::__cxx11::basic_string", align 8
  %4 = alloca %"class.std::allocator", align 1
  tail call void @llvm.experimental.noalias.scope.decl(metadata !3175)
  tail call void @llvm.experimental.noalias.scope.decl(metadata !3178)
  call void @llvm.lifetime.start.p0(i64 32, ptr nonnull %3), !noalias !3175
  call void @llvm.lifetime.start.p0(i64 1, ptr nonnull %4), !noalias !3175
  call void @_ZNSaIcEC1Ev(ptr noundef nonnull align 1 dereferenceable(1) %4) #25, !noalias !3181
  %5 = invoke noundef ptr @_ZNSt7__cxx1112basic_stringIcSt11char_traitsIcESaIcEE13_M_local_dataEv(ptr noundef nonnull align 8 dereferenceable(32) %3)
          to label %.noexc.i.i unwind label %21, !noalias !3181

.noexc.i.i:                                       ; preds = %1
  invoke void @_ZNSt7__cxx1112basic_stringIcSt11char_traitsIcESaIcEE12_Alloc_hiderC1EPcRKS3_(ptr noundef nonnull align 8 dereferenceable(8) %3, ptr noundef %5, ptr noundef nonnull align 1 dereferenceable(1) %4)
          to label %.noexc3.i.i unwind label %21, !noalias !3181

.noexc3.i.i:                                      ; preds = %.noexc.i.i
  call void @llvm.lifetime.start.p0(i64 8, ptr nonnull %2), !noalias !3175
  %6 = invoke noundef ptr @_ZNSt7__cxx1112basic_stringIcSt11char_traitsIcESaIcEE13_M_local_dataEv(ptr noundef nonnull align 8 dereferenceable(32) %3)
          to label %10 unwind label %7, !noalias !3181

7:                                                ; preds = %.noexc3.i.i
  %8 = landingpad { ptr, i32 }
          catch ptr null
  %9 = extractvalue { ptr, i32 } %8, 0
  call void @__clang_call_terminate(ptr %9) #26, !noalias !3178
  unreachable

10:                                               ; preds = %.noexc3.i.i
  store ptr %3, ptr %2, align 8, !noalias !3181
  %11 = invoke noundef ptr @_ZNKSt7__cxx1112basic_stringIcSt11char_traitsIcESaIcEE7_M_dataEv(ptr noundef nonnull align 8 dereferenceable(32) %3)
          to label %12 unwind label %.body.i, !noalias !3181

12:                                               ; preds = %10
  call void @_ZNSt7__cxx1112basic_stringIcSt11char_traitsIcESaIcEE13_S_copy_charsEPcPKcS7_(ptr noundef %11, ptr noundef nonnull @.str.285, ptr noundef nonnull getelementptr inbounds ([4 x i8], ptr @.str.285, i64 0, i64 3)) #25, !noalias !3181
  store ptr null, ptr %2, align 8, !noalias !3181
  invoke void @_ZNSt7__cxx1112basic_stringIcSt11char_traitsIcESaIcEE13_M_set_lengthEm(ptr noundef nonnull align 8 dereferenceable(32) %3, i64 noundef 3)
          to label %_ZNSt7__cxx1112basic_stringIcSt11char_traitsIcESaIcEEC2IS3_EEPKcRKS3_.exit.i.i unwind label %.body.i, !noalias !3181

.body.i:                                          ; preds = %12, %10
  %13 = landingpad { ptr, i32 }
          cleanup
  call void @_ZZNSt7__cxx1112basic_stringIcSt11char_traitsIcESaIcEE12_M_constructIPKcEEvT_S8_St20forward_iterator_tagEN6_GuardD2Ev(ptr noundef nonnull align 8 dereferenceable(8) %2) #25, !noalias !3181
  call void @_ZNSaIcED2Ev(ptr noundef nonnull align 1 dereferenceable(1) %3) #25, !noalias !3181
  br label %.body.i.i

_ZNSt7__cxx1112basic_stringIcSt11char_traitsIcESaIcEEC2IS3_EEPKcRKS3_.exit.i.i: ; preds = %12
  call void @llvm.lifetime.end.p0(i64 8, ptr nonnull %2), !noalias !3175
  %14 = call noundef ptr @_ZNKSt7__cxx1112basic_stringIcSt11char_traitsIcESaIcEE4dataEv(ptr noundef nonnull align 8 dereferenceable(32) %3) #25, !noalias !3181
  %15 = call noundef i64 @_ZNKSt7__cxx1112basic_stringIcSt11char_traitsIcESaIcEE4sizeEv(ptr noundef nonnull align 8 dereferenceable(32) %3) #25, !noalias !3181
  %16 = invoke ptr @PyByteArray_FromStringAndSize(ptr noundef %14, i64 noundef %15)
          to label %.noexc4.i.i unwind label %23, !noalias !3181

.noexc4.i.i:                                      ; preds = %_ZNSt7__cxx1112basic_stringIcSt11char_traitsIcESaIcEEC2IS3_EEPKcRKS3_.exit.i.i
  store ptr %16, ptr %0, align 8, !alias.scope !3181
  %.not.i.i.i.i = icmp eq ptr %16, null
  br i1 %.not.i.i.i.i, label %17, label %"_ZNO8pybind116detail15argument_loaderIJEE9call_implINS_9bytearrayERZ22test_submodule_pytypesRNS_7module_EE4$_56TpTnmJENS0_9void_typeEEET_OT0_St16integer_sequenceImJXspT1_EEEOT2_.exit"

17:                                               ; preds = %.noexc4.i.i
  invoke void @_ZN8pybind1113pybind11_failEPKc(ptr noundef nonnull @.str.302) #30
          to label %18 unwind label %19, !noalias !3181

18:                                               ; preds = %17
  unreachable

19:                                               ; preds = %17
  %20 = landingpad { ptr, i32 }
          cleanup
  call void @_ZN8pybind116objectD2Ev(ptr noundef nonnull align 8 dereferenceable(8) %0) #25
  br label %.body5.i.i

21:                                               ; preds = %.noexc.i.i, %1
  %22 = landingpad { ptr, i32 }
          cleanup
  br label %.body.i.i

23:                                               ; preds = %_ZNSt7__cxx1112basic_stringIcSt11char_traitsIcESaIcEEC2IS3_EEPKcRKS3_.exit.i.i
  %24 = landingpad { ptr, i32 }
          cleanup
  br label %.body5.i.i

.body5.i.i:                                       ; preds = %23, %19
  %eh.lpad-body6.i.i = phi { ptr, i32 } [ %24, %23 ], [ %20, %19 ]
  call void @_ZNSt7__cxx1112basic_stringIcSt11char_traitsIcESaIcEED1Ev(ptr noundef nonnull align 8 dereferenceable(32) %3) #25
  br label %.body.i.i

.body.i.i:                                        ; preds = %.body5.i.i, %21, %.body.i
  %.pn.i.i = phi { ptr, i32 } [ %eh.lpad-body6.i.i, %.body5.i.i ], [ %22, %21 ], [ %13, %.body.i ]
  call void @_ZNSaIcED1Ev(ptr noundef nonnull align 1 dereferenceable(1) %4) #25
  resume { ptr, i32 } %.pn.i.i

"_ZNO8pybind116detail15argument_loaderIJEE9call_implINS_9bytearrayERZ22test_submodule_pytypesRNS_7module_EE4$_56TpTnmJENS0_9void_typeEEET_OT0_St16integer_sequenceImJXspT1_EEEOT2_.exit": ; preds = %.noexc4.i.i
  call void @_ZNSt7__cxx1112basic_stringIcSt11char_traitsIcESaIcEED1Ev(ptr noundef nonnull align 8 dereferenceable(32) %3) #25, !noalias !3181
  call void @_ZNSaIcED1Ev(ptr noundef nonnull align 1 dereferenceable(1) %4) #25, !noalias !3181
  call void @llvm.lifetime.end.p0(i64 32, ptr nonnull %3), !noalias !3175
  call void @llvm.lifetime.end.p0(i64 1, ptr nonnull %4), !noalias !3175
  ret void
}